target datalayout = "e-m:e-p270:32:32-p271:32:32-p272:64:64-i64:64-i128:128-f80:128-n8:16:32:64-S128"
target triple = "x86_64-pc-linux-gnu"

%struct.curltime = type { i64, i32 }
%struct.Curl_easy = type { i32, i64, ptr, ptr, ptr, %struct.Curl_llist_element, %struct.Curl_llist_element, i32, i32, %struct.Curl_message, %struct.easy_pollset, %struct.Names, ptr, ptr, ptr, %struct.SingleRequest, %struct.UserDefined, ptr, ptr, %struct.Progress, %struct.UrlState, ptr, %struct.PureInfo, %struct.curl_tlssessioninfo }
%struct.Curl_llist_element = type { ptr, ptr, ptr }
%struct.Curl_message = type { %struct.Curl_llist_element, %struct.CURLMsg }
%struct.CURLMsg = type { i32, ptr, %union.anon }
%union.anon = type { ptr }
%struct.easy_pollset = type { [5 x i32], i32, [5 x i8] }
%struct.Names = type { ptr, i32 }
%struct.SingleRequest = type <{ i64, i64, i64, i64, i64, %struct.curltime, i32, i32, i32, i32, i64, i32, i32, %struct.curltime, i32, i32, ptr, i64, i64, ptr, ptr, i64, ptr, %union.anon.0, ptr, [2 x i8], i8, i16, [3 x i8] }>
%union.anon.0 = type { ptr }
%struct.UserDefined = type <{ ptr, ptr, ptr, ptr, ptr, ptr, i16, [6 x i8], i64, i64, i64, ptr, ptr, i64, i16, i16, [4 x i8], ptr, ptr, ptr, ptr, ptr, ptr, ptr, ptr, ptr, ptr, ptr, ptr, ptr, ptr, ptr, ptr, ptr, ptr, ptr, ptr, ptr, ptr, ptr, i32, i32, i32, i32, i64, i64, i64, i64, i64, i64, i64, i64, ptr, ptr, %struct.curl_mimepart, ptr, ptr, i64, i8, i8, i8, [5 x i8], %struct.ssl_config_data, %struct.ssl_config_data, ptr, i16, i8, i8, [4 x i8], %struct.ssl_general_config, i32, i32, i32, [4 x i8], ptr, ptr, i8, [7 x i8], i64, i8, i8, i8, i8, i32, ptr, ptr, ptr, i8, i8, [2 x i8], i32, [80 x ptr], [8 x ptr], i32, i32, i32, [4 x i8], ptr, ptr, ptr, ptr, ptr, i8, [3 x i8], i32, i32, [4 x i8], i64, %struct.Curl_data_priority, ptr, ptr, i64, ptr, ptr, ptr, ptr, ptr, i8, [3 x i8], i32, i8, i8, i56, [6 x i8] }>
%struct.curl_mimepart = type { ptr, ptr, i32, i32, ptr, ptr, ptr, ptr, ptr, ptr, ptr, ptr, ptr, ptr, ptr, i64, %struct.mime_state, ptr, %struct.mime_encoder_state, i64 }
%struct.mime_state = type { i32, ptr, i64 }
%struct.mime_encoder_state = type { i64, i64, i64, [256 x i8] }
%struct.ssl_config_data = type { %struct.ssl_primary_config, i64, ptr, ptr, ptr, ptr, ptr, ptr, ptr, i8 }
%struct.ssl_primary_config = type { ptr, ptr, ptr, ptr, ptr, ptr, ptr, ptr, ptr, ptr, ptr, ptr, i8, i32, i8, i8 }
%struct.ssl_general_config = type { i64, i32 }
%struct.Curl_data_priority = type { ptr, ptr, i32, i8 }
%struct.Progress = type { i64, i64, i64, i64, i64, i64, i32, i32, i64, i64, i64, i64, i64, i64, i64, i64, i64, i64, %struct.curltime, %struct.curltime, %struct.curltime, %struct.curltime, %struct.curltime, i64, %struct.curltime, i64, [6 x i64], [6 x %struct.curltime], i32, i8 }
%struct.UrlState = type { ptr, %struct.curltime, i64, i64, %struct.dynbuf, ptr, ptr, ptr, i64, ptr, i32, i32, i32, ptr, i64, [3 x %struct.tempbuf], i32, i32, ptr, i64, i32, ptr, %struct.digestdata, %struct.digestdata, %struct.auth, %struct.auth, %struct.Curl_async, ptr, %struct.curltime, %struct.Curl_tree, %struct.Curl_llist, [15 x %struct.time_node], ptr, i8, i64, ptr, i64, i64, %struct.Curl_data_priority, ptr, ptr, ptr, %struct.urlpieces, ptr, ptr, ptr, ptr, ptr, i64, %struct.dynbuf, %struct.Curl_llist, [2 x %struct.curl_header], ptr, i32, ptr, %struct.dynamically_allocated_data, i8, i8, i8, i8, i24 }
%struct.tempbuf = type { %struct.dynbuf, i32, i8 }
%struct.digestdata = type { ptr, ptr, ptr, ptr, ptr, ptr, i32, i8, i8 }
%struct.auth = type { i64, i64, i64, i8 }
%struct.Curl_async = type { ptr, ptr, ptr, ptr, i32, i32, i8 }
%struct.Curl_tree = type { ptr, ptr, ptr, ptr, %struct.curltime, ptr }
%struct.time_node = type { %struct.Curl_llist_element, %struct.curltime, i32 }
%struct.urlpieces = type { ptr, ptr, ptr, ptr, ptr, ptr, ptr, ptr }
%struct.dynbuf = type { ptr, i64, i64, i64 }
%struct.Curl_llist = type { ptr, ptr, ptr, i64 }
%struct.curl_header = type { ptr, ptr, i64, i64, i32, ptr }
%struct.dynamically_allocated_data = type { ptr, ptr, ptr, ptr, ptr, ptr, ptr, ptr, ptr, ptr, ptr, ptr, ptr, ptr }
%struct.PureInfo = type { i32, i32, i32, i64, i64, i64, i64, i64, ptr, ptr, i64, i32, [46 x i8], i32, i32, [46 x i8], i32, ptr, i32, %struct.curl_certinfo, i32, i8 }
%struct.curl_certinfo = type { i32, ptr }
%struct.curl_tlssessioninfo = type { i32, ptr }

@randit.randseed = internal global i32 0, align 4
@randit.seeded = internal global i8 0, align 1
@.str = private unnamed_addr constant [13 x i8] c"/dev/urandom\00", align 1
@.str.1 = private unnamed_addr constant [32 x i8] c"WARNING: using weak random seed\00", align 1

; Function Attrs: nounwind uwtable
define internal i32 @randit(ptr noundef %0, ptr noundef %1) #0 {
  %3 = alloca i32, align 4
  %4 = alloca ptr, align 8
  %5 = alloca ptr, align 8
  %6 = alloca i32, align 4
  %7 = alloca i32, align 4
  %8 = alloca i64, align 8
  %9 = alloca %struct.curltime, align 8
  %10 = alloca i32, align 4
  store ptr %0, ptr %4, align 8
  store ptr %1, ptr %5, align 8
  store i32 0, ptr %6, align 4
  %11 = load ptr, ptr %4, align 8
  %12 = load ptr, ptr %5, align 8
  %13 = call i32 @Curl_ssl_random(ptr noundef %11, ptr noundef %12, i64 noundef 4)
  store i32 %13, ptr %6, align 4
  %14 = load i32, ptr %6, align 4
  %15 = icmp ne i32 %14, 4
  br i1 %15, label %16, label %18

16:                                               ; preds = %2
  %17 = load i32, ptr %6, align 4
  store i32 %17, ptr %3, align 4
  br label %88

18:                                               ; preds = %2
  %19 = load i8, ptr @randit.seeded, align 1
  %20 = trunc i8 %19 to i1
  br i1 %20, label %35, label %21

21:                                               ; preds = %18
  %22 = call i32 (ptr, i32, ...) @open64(ptr noundef @.str, i32 noundef 0)
  store i32 %22, ptr %7, align 4
  %23 = load i32, ptr %7, align 4
  %24 = icmp sgt i32 %23, -1
  br i1 %24, label %25, label %34

25:                                               ; preds = %21
  %26 = load i32, ptr %7, align 4
  %27 = call i64 @read(i32 noundef %26, ptr noundef @randit.randseed, i64 noundef 4)
  store i64 %27, ptr %8, align 8
  %28 = load i64, ptr %8, align 8
  %29 = icmp eq i64 %28, 4
  br i1 %29, label %30, label %31

30:                                               ; preds = %25
  store i8 1, ptr @randit.seeded, align 1
  br label %31

31:                                               ; preds = %30, %25
  %32 = load i32, ptr %7, align 4
  %33 = call i32 @close(i32 noundef %32)
  br label %34

34:                                               ; preds = %31, %21
  br label %35

35:                                               ; preds = %34, %18
  %36 = load i8, ptr @randit.seeded, align 1
  %37 = trunc i8 %36 to i1
  br i1 %37, label %77, label %38

38:                                               ; preds = %35
  %39 = call { i64, i32 } @Curl_now()
  %40 = getelementptr inbounds { i64, i32 }, ptr %9, i32 0, i32 0
  %41 = extractvalue { i64, i32 } %39, 0
  store i64 %41, ptr %40, align 8
  %42 = getelementptr inbounds { i64, i32 }, ptr %9, i32 0, i32 1
  %43 = extractvalue { i64, i32 } %39, 1
  store i32 %43, ptr %42, align 8
  br label %44

44:                                               ; preds = %38
  %45 = load ptr, ptr %4, align 8
  %46 = icmp ne ptr %45, null
  br i1 %46, label %47, label %58

47:                                               ; preds = %44
  %48 = load ptr, ptr %4, align 8
  %49 = getelementptr inbounds %struct.Curl_easy, ptr %48, i32 0, i32 16
  %50 = getelementptr inbounds %struct.UserDefined, ptr %49, i32 0, i32 122
  %51 = load i64, ptr %50, align 2
  %52 = lshr i64 %51, 28
  %53 = and i64 %52, 1
  %54 = trunc i64 %53 to i32
  %55 = icmp ne i32 %54, 0
  br i1 %55, label %56, label %58

56:                                               ; preds = %47
  %57 = load ptr, ptr %4, align 8
  call void (ptr, ptr, ...) @Curl_infof(ptr noundef %57, ptr noundef @.str.1)
  br label %58

58:                                               ; preds = %56, %47, %44
  br label %59

59:                                               ; preds = %58
  %60 = getelementptr inbounds %struct.curltime, ptr %9, i32 0, i32 1
  %61 = load i32, ptr %60, align 8
  %62 = getelementptr inbounds %struct.curltime, ptr %9, i32 0, i32 0
  %63 = load i64, ptr %62, align 8
  %64 = trunc i64 %63 to i32
  %65 = add i32 %61, %64
  %66 = load i32, ptr @randit.randseed, align 4
  %67 = add i32 %66, %65
  store i32 %67, ptr @randit.randseed, align 4
  %68 = load i32, ptr @randit.randseed, align 4
  %69 = mul i32 %68, 1103515245
  %70 = add i32 %69, 12345
  store i32 %70, ptr @randit.randseed, align 4
  %71 = load i32, ptr @randit.randseed, align 4
  %72 = mul i32 %71, 1103515245
  %73 = add i32 %72, 12345
  store i32 %73, ptr @randit.randseed, align 4
  %74 = load i32, ptr @randit.randseed, align 4
  %75 = mul i32 %74, 1103515245
  %76 = add i32 %75, 12345
  store i32 %76, ptr @randit.randseed, align 4
  store i8 1, ptr @randit.seeded, align 1
  br label %77

77:                                               ; preds = %59, %35
  %78 = load i32, ptr @randit.randseed, align 4
  %79 = mul i32 %78, 1103515245
  %80 = add i32 %79, 12345
  store i32 %80, ptr @randit.randseed, align 4
  store i32 %80, ptr %10, align 4
  %81 = load i32, ptr %10, align 4
  %82 = shl i32 %81, 16
  %83 = load i32, ptr %10, align 4
  %84 = lshr i32 %83, 16
  %85 = and i32 %84, 65535
  %86 = or i32 %82, %85
  %87 = load ptr, ptr %5, align 8
  store i32 %86, ptr %87, align 4
  store i32 0, ptr %3, align 4
  br label %88

88:                                               ; preds = %77, %16
  %89 = load i32, ptr %3, align 4
  ret i32 %89
}