; Function Attrs: nounwind uwtable
define internal fastcc range(i32 5, 4) i32 @randit(ptr noundef %0, ptr noundef nonnull %1) unnamed_addr #0 {
  %3 = tail call i32 @Curl_ssl_random(ptr noundef %0, ptr noundef nonnull %1, i64 noundef 4) #5
  %.not = icmp eq i32 %3, 4
  br i1 %.not, label %4, label %35

4:                                                ; preds = %2
  %.b1718 = load i1, ptr @randit.seeded, align 1
  br i1 %.b1718, label %.thread, label %5

5:                                                ; preds = %4
  %6 = tail call i32 (ptr, i32, ...) @open64(ptr noundef nonnull @.str, i32 noundef 0) #5
  %7 = icmp sgt i32 %6, -1
  br i1 %7, label %8, label %14

8:                                                ; preds = %5
  %9 = tail call i64 @read(i32 noundef %6, ptr noundef nonnull @randit.randseed, i64 noundef 4) #5
  %10 = icmp eq i64 %9, 4
  br i1 %10, label %11, label %12

11:                                               ; preds = %8
  store i1 true, ptr @randit.seeded, align 1
  br label %12

12:                                               ; preds = %11, %8
  %13 = tail call i32 @close(i32 noundef %6) #5
  br label %14

14:                                               ; preds = %5, %12
  %.b19.pr = load i1, ptr @randit.seeded, align 1
  br i1 %.b19.pr, label %.thread, label %15

15:                                               ; preds = %14
  %16 = tail call { i64, i32 } @Curl_now() #5
  %17 = extractvalue { i64, i32 } %16, 0
  %18 = extractvalue { i64, i32 } %16, 1
  %.not20 = icmp eq ptr %0, null
  br i1 %.not20, label %24, label %19

19:                                               ; preds = %15
  %20 = getelementptr inbounds nuw i8, ptr %0, i64 2642
  %21 = load i64, ptr %20, align 2
  %22 = and i64 %21, 268435456
  %.not21 = icmp eq i64 %22, 0
  br i1 %.not21, label %24, label %23

23:                                               ; preds = %19
  tail call void (ptr, ptr, ...) @Curl_infof(ptr noundef nonnull %0, ptr noundef nonnull @.str.1) #5
  br label %24

24:                                               ; preds = %15, %19, %23
  %25 = trunc i64 %17 to i32
  %26 = add i32 %18, %25
  %27 = load i32, ptr @randit.randseed, align 4
  %28 = add i32 %26, %27
  %29 = mul i32 %28, -2139243339
  %30 = add i32 %29, -1492899873
  store i32 %30, ptr @randit.randseed, align 4
  store i1 true, ptr @randit.seeded, align 1
  br label %.thread

.thread:                                          ; preds = %4, %24, %14
  %31 = load i32, ptr @randit.randseed, align 4
  %32 = mul i32 %31, 1103515245
  %33 = add i32 %32, 12345
  store i32 %33, ptr @randit.randseed, align 4
  %34 = tail call i32 @llvm.fshl.i32(i32 %33, i32 %33, i32 16)
  store i32 %34, ptr %1, align 4
  br label %35

35:                                               ; preds = %2, %.thread
  %.0 = phi i32 [ 0, %.thread ], [ %3, %2 ]
  ret i32 %.0
}